; Function Attrs: nounwind uwtable
define noalias noundef ptr @Abc_NtkBddCofactors(ptr noundef %0, ptr noundef %1, i32 noundef %2) local_unnamed_addr #0 {
  %4 = shl nuw i32 1, %2
  %5 = tail call noalias dereferenceable_or_null(16) ptr @malloc(i64 noundef 16) #19
  %6 = getelementptr inbounds nuw i8, ptr %5, i64 4
  store i32 0, ptr %6, align 4, !tbaa !3
  store i32 8, ptr %5, align 8, !tbaa !34
  %7 = tail call noalias dereferenceable_or_null(64) ptr @malloc(i64 noundef 64) #19
  %8 = getelementptr inbounds nuw i8, ptr %5, i64 8
  store ptr %7, ptr %8, align 8, !tbaa !31
  %.not = icmp eq i32 %2, 31
  br i1 %.not, label %._crit_edge, label %.lr.ph

.lr.ph:                                           ; preds = %3
  %9 = ptrtoint ptr %1 to i64
  %10 = and i64 %9, -2
  %11 = inttoptr i64 %10 to ptr
  %12 = icmp eq i32 %2, 0
  br i1 %12, label %Abc_NtkBddCofactors_rec.exit.us, label %.lr.ph.split.preheader

.lr.ph.split.preheader:                           ; preds = %.lr.ph
  %smax = tail call i32 @llvm.smax.i32(i32 %4, i32 1)
  br label %.lr.ph.split

Abc_NtkBddCofactors_rec.exit.us:                  ; preds = %.lr.ph, %Vec_PtrPush.exit.us
  %indvars.iv = phi i64 [ %indvars.iv.next, %Vec_PtrPush.exit.us ], [ 0, %.lr.ph ]
  %13 = phi i32 [ %34, %Vec_PtrPush.exit.us ], [ 8, %.lr.ph ]
  %.09.us = phi i32 [ %37, %Vec_PtrPush.exit.us ], [ 0, %.lr.ph ]
  %14 = trunc nsw i64 %indvars.iv to i32
  %15 = icmp eq i32 %13, %14
  br i1 %15, label %16, label %.Vec_PtrGrow.exit11_crit_edge.i.us

.Vec_PtrGrow.exit11_crit_edge.i.us:               ; preds = %Abc_NtkBddCofactors_rec.exit.us
  %.pre.i.us = load ptr, ptr %8, align 8, !tbaa !31
  br label %Vec_PtrPush.exit.us

16:                                               ; preds = %Abc_NtkBddCofactors_rec.exit.us
  %17 = icmp samesign ult i64 %indvars.iv, 16
  %18 = load ptr, ptr %8, align 8, !tbaa !31
  %.not9.i.i.us = icmp eq ptr %18, null
  br i1 %17, label %28, label %19

19:                                               ; preds = %16
  %20 = shl nuw nsw i64 %indvars.iv, 4
  br i1 %.not9.i.i.us, label %23, label %21

21:                                               ; preds = %19
  %22 = tail call ptr @realloc(ptr noundef nonnull %18, i64 noundef %20) #18
  br label %25

23:                                               ; preds = %19
  %24 = tail call noalias ptr @malloc(i64 noundef %20) #19
  br label %25

25:                                               ; preds = %23, %21
  %26 = phi ptr [ %22, %21 ], [ %24, %23 ]
  store ptr %26, ptr %8, align 8, !tbaa !31
  %indvars.iv.tr = trunc i64 %indvars.iv to i32
  %27 = shl i32 %indvars.iv.tr, 1
  br label %Vec_PtrPush.exit.us

28:                                               ; preds = %16
  br i1 %.not9.i.i.us, label %31, label %29

29:                                               ; preds = %28
  %30 = tail call dereferenceable_or_null(128) ptr @realloc(ptr noundef nonnull %18, i64 noundef 128) #18
  br label %Vec_PtrGrow.exit.i.us

31:                                               ; preds = %28
  %32 = tail call noalias dereferenceable_or_null(128) ptr @malloc(i64 noundef 128) #19
  br label %Vec_PtrGrow.exit.i.us

Vec_PtrGrow.exit.i.us:                            ; preds = %31, %29
  %33 = phi ptr [ %30, %29 ], [ %32, %31 ]
  store ptr %33, ptr %8, align 8, !tbaa !31
  br label %Vec_PtrPush.exit.us

Vec_PtrPush.exit.us:                              ; preds = %Vec_PtrGrow.exit.i.us, %25, %.Vec_PtrGrow.exit11_crit_edge.i.us
  %34 = phi i32 [ %13, %.Vec_PtrGrow.exit11_crit_edge.i.us ], [ %27, %25 ], [ 16, %Vec_PtrGrow.exit.i.us ]
  %35 = phi ptr [ %.pre.i.us, %.Vec_PtrGrow.exit11_crit_edge.i.us ], [ %26, %25 ], [ %33, %Vec_PtrGrow.exit.i.us ]
  %indvars.iv.next = add nuw nsw i64 %indvars.iv, 1
  %36 = getelementptr inbounds nuw ptr, ptr %35, i64 %indvars.iv
  store ptr %1, ptr %36, align 8, !tbaa !33
  %37 = add nuw nsw i32 %.09.us, 1
  %exitcond15.not = icmp eq i32 %37, %4
  br i1 %exitcond15.not, label %._crit_edge.split.us, label %Abc_NtkBddCofactors_rec.exit.us, !llvm.loop !54

._crit_edge.split.us:                             ; preds = %Vec_PtrPush.exit.us
  %38 = trunc nsw i64 %indvars.iv.next to i32
  store i32 %38, ptr %6, align 4, !tbaa !3
  store i32 %34, ptr %5, align 8
  br label %._crit_edge

.lr.ph.split:                                     ; preds = %.lr.ph.split.preheader, %Vec_PtrPush.exit
  %39 = phi i32 [ %100, %Vec_PtrPush.exit ], [ 8, %.lr.ph.split.preheader ]
  %40 = phi i32 [ %102, %Vec_PtrPush.exit ], [ 0, %.lr.ph.split.preheader ]
  %.09 = phi i32 [ %105, %Vec_PtrPush.exit ], [ 0, %.lr.ph.split.preheader ]
  %41 = load i32, ptr %11, align 8, !tbaa !51
  %42 = icmp eq i32 %41, 2147483647
  br i1 %42, label %Abc_NtkBddCofactors_rec.exit, label %.lr.ph.i

.lr.ph.i:                                         ; preds = %.lr.ph.split, %tailrecurse.i
  %43 = phi ptr [ %73, %tailrecurse.i ], [ %11, %.lr.ph.split ]
  %44 = phi i64 [ %71, %tailrecurse.i ], [ %9, %.lr.ph.split ]
  %.tr3438.i = phi i32 [ %70, %tailrecurse.i ], [ 0, %.lr.ph.split ]
  %.tr3237.i = phi ptr [ %.027..0.i, %tailrecurse.i ], [ %1, %.lr.ph.split ]
  %45 = tail call i32 @Cudd_NodeReadIndex(ptr noundef %.tr3237.i) #20
  %46 = tail call i32 @Cudd_ReadPerm(ptr noundef %0, i32 noundef %45) #20
  %47 = icmp sgt i32 %46, %.tr3438.i
  br i1 %47, label %tailrecurse.i, label %48

48:                                               ; preds = %.lr.ph.i
  %49 = and i64 %44, 1
  %.not.i = icmp eq i64 %49, 0
  br i1 %.not.i, label %61, label %50

50:                                               ; preds = %48
  %51 = getelementptr inbounds nuw i8, ptr %43, i64 16
  %52 = getelementptr inbounds nuw i8, ptr %43, i64 24
  %53 = load ptr, ptr %52, align 8, !tbaa !50
  %54 = ptrtoint ptr %53 to i64
  %55 = xor i64 %54, 1
  %56 = inttoptr i64 %55 to ptr
  %57 = load ptr, ptr %51, align 8, !tbaa !50
  %58 = ptrtoint ptr %57 to i64
  %59 = xor i64 %58, 1
  %60 = inttoptr i64 %59 to ptr
  br label %tailrecurse.i

61:                                               ; preds = %48
  %62 = getelementptr inbounds nuw i8, ptr %.tr3237.i, i64 16
  %63 = getelementptr inbounds nuw i8, ptr %.tr3237.i, i64 24
  %64 = load ptr, ptr %63, align 8, !tbaa !50
  %65 = load ptr, ptr %62, align 8, !tbaa !50
  br label %tailrecurse.i

tailrecurse.i:                                    ; preds = %61, %50, %.lr.ph.i
  %.027.i = phi ptr [ %56, %50 ], [ %64, %61 ], [ %.tr3237.i, %.lr.ph.i ]
  %.0.i = phi ptr [ %60, %50 ], [ %65, %61 ], [ %.tr3237.i, %.lr.ph.i ]
  %66 = xor i32 %.tr3438.i, -1
  %67 = add i32 %2, %66
  %68 = shl nuw i32 1, %67
  %69 = and i32 %68, %.09
  %.not31.i = icmp eq i32 %69, 0
  %70 = add nuw nsw i32 %.tr3438.i, 1
  %.027..0.i = select i1 %.not31.i, ptr %.027.i, ptr %.0.i
  %71 = ptrtoint ptr %.027..0.i to i64
  %72 = and i64 %71, -2
  %73 = inttoptr i64 %72 to ptr
  %74 = load i32, ptr %73, align 8, !tbaa !51
  %75 = icmp eq i32 %74, 2147483647
  %76 = icmp eq i32 %70, %2
  %or.cond.i = or i1 %76, %75
  br i1 %or.cond.i, label %Abc_NtkBddCofactors_rec.exit.loopexit, label %.lr.ph.i

Abc_NtkBddCofactors_rec.exit.loopexit:            ; preds = %tailrecurse.i
  %.pre = load i32, ptr %6, align 4, !tbaa !3
  %.pre16 = load i32, ptr %5, align 8, !tbaa !34
  br label %Abc_NtkBddCofactors_rec.exit

Abc_NtkBddCofactors_rec.exit:                     ; preds = %Abc_NtkBddCofactors_rec.exit.loopexit, %.lr.ph.split
  %77 = phi i32 [ %39, %.lr.ph.split ], [ %.pre16, %Abc_NtkBddCofactors_rec.exit.loopexit ]
  %78 = phi i32 [ %40, %.lr.ph.split ], [ %.pre, %Abc_NtkBddCofactors_rec.exit.loopexit ]
  %.tr32.lcssa.i = phi ptr [ %1, %.lr.ph.split ], [ %.027..0.i, %Abc_NtkBddCofactors_rec.exit.loopexit ]
  %79 = icmp eq i32 %78, %77
  br i1 %79, label %80, label %.Vec_PtrGrow.exit11_crit_edge.i

.Vec_PtrGrow.exit11_crit_edge.i:                  ; preds = %Abc_NtkBddCofactors_rec.exit
  %.pre.i = load ptr, ptr %8, align 8, !tbaa !31
  br label %Vec_PtrPush.exit

80:                                               ; preds = %Abc_NtkBddCofactors_rec.exit
  %81 = icmp slt i32 %77, 16
  br i1 %81, label %82, label %89

82:                                               ; preds = %80
  %83 = load ptr, ptr %8, align 8, !tbaa !31
  %.not9.i.i = icmp eq ptr %83, null
  br i1 %.not9.i.i, label %86, label %84

84:                                               ; preds = %82
  %85 = tail call dereferenceable_or_null(128) ptr @realloc(ptr noundef nonnull %83, i64 noundef 128) #18
  br label %Vec_PtrGrow.exit.i

86:                                               ; preds = %82
  %87 = tail call noalias dereferenceable_or_null(128) ptr @malloc(i64 noundef 128) #19
  br label %Vec_PtrGrow.exit.i

Vec_PtrGrow.exit.i:                               ; preds = %86, %84
  %88 = phi ptr [ %85, %84 ], [ %87, %86 ]
  store ptr %88, ptr %8, align 8, !tbaa !31
  store i32 16, ptr %5, align 8, !tbaa !34
  br label %Vec_PtrPush.exit

89:                                               ; preds = %80
  %90 = shl nuw nsw i32 %77, 1
  %91 = load ptr, ptr %8, align 8, !tbaa !31
  %.not9.i10.i = icmp eq ptr %91, null
  %92 = zext nneg i32 %90 to i64
  %93 = shl nuw nsw i64 %92, 3
  br i1 %.not9.i10.i, label %96, label %94

94:                                               ; preds = %89
  %95 = tail call ptr @realloc(ptr noundef nonnull %91, i64 noundef %93) #18
  br label %98

96:                                               ; preds = %89
  %97 = tail call noalias ptr @malloc(i64 noundef %93) #19
  br label %98

98:                                               ; preds = %96, %94
  %99 = phi ptr [ %95, %94 ], [ %97, %96 ]
  store ptr %99, ptr %8, align 8, !tbaa !31
  store i32 %90, ptr %5, align 8, !tbaa !34
  br label %Vec_PtrPush.exit

Vec_PtrPush.exit:                                 ; preds = %.Vec_PtrGrow.exit11_crit_edge.i, %Vec_PtrGrow.exit.i, %98
  %100 = phi i32 [ %77, %.Vec_PtrGrow.exit11_crit_edge.i ], [ %90, %98 ], [ 16, %Vec_PtrGrow.exit.i ]
  %101 = phi ptr [ %.pre.i, %.Vec_PtrGrow.exit11_crit_edge.i ], [ %99, %98 ], [ %88, %Vec_PtrGrow.exit.i ]
  %102 = add nsw i32 %78, 1
  store i32 %102, ptr %6, align 4, !tbaa !3
  %103 = sext i32 %78 to i64
  %104 = getelementptr inbounds ptr, ptr %101, i64 %103
  store ptr %.tr32.lcssa.i, ptr %104, align 8, !tbaa !33
  %105 = add nuw nsw i32 %.09, 1
  %exitcond.not = icmp eq i32 %105, %smax
  br i1 %exitcond.not, label %._crit_edge, label %.lr.ph.split, !llvm.loop !54

._crit_edge:                                      ; preds = %Vec_PtrPush.exit, %._crit_edge.split.us, %3
  ret ptr %5
}